; Function Attrs: nofree nounwind uwtable
define internal void @err(ptr noundef nonnull readonly captures(none) %0, ptr noundef readonly captures(none) %1, ...) unnamed_addr #5 {
  %3 = alloca [1 x %struct.__va_list_tag], align 16
  call void @llvm.lifetime.start.p0(i64 24, ptr nonnull %3) #17
  call void @llvm.va_start.p0(ptr nonnull %3)
  %4 = getelementptr inbounds nuw i8, ptr %0, i64 237
  %5 = load ptr, ptr @stdout, align 8, !tbaa !83
  %6 = call i32 @fputs(ptr noundef nonnull %4, ptr noundef %5)
  %7 = load ptr, ptr @stdout, align 8, !tbaa !83, !noalias !121
  %8 = call i32 @vfprintf(ptr noundef %7, ptr noundef %1, ptr noundef nonnull %3) #17
  %9 = getelementptr inbounds nuw i8, ptr %0, i64 312
  %10 = call i32 @puts(ptr noundef nonnull dereferenceable(1) %9)
  call void @llvm.va_end.p0(ptr nonnull %3)
  call void @llvm.lifetime.end.p0(i64 24, ptr nonnull %3) #17
  ret void
}